target datalayout = "e-m:e-p270:32:32-p271:32:32-p272:64:64-i64:64-i128:128-f80:128-n8:16:32:64-S128"
target triple = "x86_64-pc-linux-gnu"

@huff_algo_names = internal global [3 x ptr] [ptr @.str.1, ptr @.str.2, ptr @.str.3], align 16

; Function Attrs: nounwind uwtable
define ptr @Ptngc_comp_get_huff_algo_name(i32 noundef %0) #0 {
  %2 = alloca ptr, align 8
  %3 = alloca i32, align 4
  store i32 %0, ptr %3, align 4, !tbaa !3
  %4 = load i32, ptr %3, align 4, !tbaa !3
  %5 = icmp slt i32 %4, 0
  br i1 %5, label %9, label %6

6:                                                ; preds = %1
  %7 = load i32, ptr %3, align 4, !tbaa !3
  %8 = icmp sge i32 %7, 3
  br i1 %8, label %9, label %10

9:                                                ; preds = %6, %1
  store ptr null, ptr %2, align 8
  br label %15

10:                                               ; preds = %6
  %11 = load i32, ptr %3, align 4, !tbaa !3
  %12 = sext i32 %11 to i64
  %13 = getelementptr inbounds [3 x ptr], ptr @huff_algo_names, i64 0, i64 %12
  %14 = load ptr, ptr %13, align 8, !tbaa !10
  store ptr %14, ptr %2, align 8
  br label %15

15:                                               ; preds = %10, %9
  %16 = load ptr, ptr %2, align 8
  ret ptr %16
}